; Function Attrs: mustprogress nounwind uwtable
define dso_local noundef zeroext i1 @_ZN4llvm8LLParser28parseStandaloneConstantValueERPNS_8ConstantEPKNS_11SlotMappingE(ptr noundef nonnull align 8 dereferenceable(1768) %0, ptr nocapture noundef nonnull writeonly align 8 dereferenceable(8) %1, ptr noundef %2) local_unnamed_addr #0 align 2 {
  %4 = alloca %"class.llvm::Twine", align 8
  %5 = alloca ptr, align 8
  %6 = alloca %"class.llvm::Twine", align 8
  tail call void @_ZN4llvm8LLParser19restoreParsingStateEPKNS_11SlotMappingE(ptr noundef nonnull align 8 dereferenceable(1768) %0, ptr noundef %2)
  %7 = getelementptr inbounds nuw i8, ptr %0, i64 176
  %8 = tail call noundef i32 @_ZN4llvm7LLLexer8LexTokenEv(ptr noundef nonnull align 8 dereferenceable(161) %7) #25
  %9 = getelementptr inbounds i8, ptr %0, i64 232
  store i32 %8, ptr %9, align 8
  store ptr null, ptr %5, align 8
  call void @llvm.lifetime.start.p0(i64 40, ptr nonnull %4)
  %10 = getelementptr inbounds nuw i8, ptr %4, i64 32
  %11 = getelementptr inbounds nuw i8, ptr %4, i64 33
  store i8 1, ptr %11, align 1
  store ptr @.str.612, ptr %4, align 8
  store i8 3, ptr %10, align 8
  %12 = call noundef zeroext i1 @_ZN4llvm8LLParser9parseTypeERPNS_4TypeERKNS_5TwineEb(ptr noundef nonnull align 8 dereferenceable(1768) %0, ptr noundef nonnull align 8 dereferenceable(8) %5, ptr noundef nonnull align 8 dereferenceable(34) %4, i1 noundef zeroext false)
  call void @llvm.lifetime.end.p0(i64 40, ptr nonnull %4)
  br i1 %12, label %24, label %13

13:                                               ; preds = %3
  %14 = load ptr, ptr %5, align 8
  %15 = call noundef zeroext i1 @_ZN4llvm8LLParser18parseConstantValueEPNS_4TypeERPNS_8ConstantE(ptr noundef nonnull align 8 dereferenceable(1768) %0, ptr noundef %14, ptr noundef nonnull align 8 dereferenceable(8) %1)
  br i1 %15, label %24, label %16

16:                                               ; preds = %13
  %17 = load i32, ptr %9, align 8
  %.not = icmp eq i32 %17, 0
  br i1 %.not, label %24, label %18

18:                                               ; preds = %16
  %19 = getelementptr inbounds i8, ptr %0, i64 224
  %20 = load ptr, ptr %19, align 8
  %21 = getelementptr inbounds nuw i8, ptr %6, i64 32
  %22 = getelementptr inbounds nuw i8, ptr %6, i64 33
  store i8 1, ptr %22, align 1
  store ptr @.str.3, ptr %6, align 8
  store i8 3, ptr %21, align 8
  %23 = call noundef zeroext i1 @_ZNK4llvm7LLLexer5ErrorENS_5SMLocERKNS_5TwineE(ptr noundef nonnull align 8 dereferenceable(161) %7, ptr %20, ptr noundef nonnull align 8 dereferenceable(34) %6) #25
  br label %24

24:                                               ; preds = %16, %3, %13, %18
  %.0 = phi i1 [ %23, %18 ], [ true, %13 ], [ true, %3 ], [ false, %16 ]
  ret i1 %.0
}